; Function Attrs: mustprogress null_pointer_is_valid sspstrong uwtable
define void @_ZN23CapturePreferencesFrame43on_defaultInterfaceComboBox_editTextChangedERK7QString(ptr noundef readonly align 8 captures(none) dereferenceable_or_null(112) %0, ptr noundef align 8 dereferenceable(24) %1) local_unnamed_addr #0 align 2 personality ptr @__gxx_personality_v0 {
  %3 = alloca %class.QByteArray, align 8
  %4 = getelementptr inbounds nuw i8, ptr %0, i64 48
  %5 = load ptr, ptr %4, align 8
  call void @llvm.lifetime.start.p0(i64 24, ptr nonnull %3) #9
  call void @_ZN7QString13toUtf8_helperERKS_(ptr dead_on_unwind nonnull writable sret(%class.QByteArray) align 8 %3, ptr noundef align 8 dereferenceable(24) dereferenceable_or_null(24) %1)
  %6 = getelementptr inbounds nuw i8, ptr %3, i64 8
  %7 = load ptr, ptr %6, align 8
  %.not.i.i = icmp eq ptr %7, null
  %spec.select.i.i = select i1 %.not.i.i, ptr @_ZN10QByteArray6_emptyE, ptr %7
  %8 = invoke i32 @prefs_set_string_value(ptr noundef %5, ptr noundef nonnull %spec.select.i.i, i32 noundef 1)
          to label %9 unwind label %14

9:                                                ; preds = %2
  %10 = load ptr, ptr %3, align 8
  %.not.i.i.i = icmp eq ptr %10, null
  br i1 %.not.i.i.i, label %_ZN10QByteArrayD2Ev.exit, label %_ZN17QArrayDataPointerIcE5derefEv.exit.i.i

_ZN17QArrayDataPointerIcE5derefEv.exit.i.i:       ; preds = %9
  %11 = atomicrmw sub ptr %10, i32 1 seq_cst, align 4
  %.not.i.i3 = icmp eq i32 %11, 1
  br i1 %.not.i.i3, label %12, label %_ZN10QByteArrayD2Ev.exit

12:                                               ; preds = %_ZN17QArrayDataPointerIcE5derefEv.exit.i.i
  %13 = load ptr, ptr %3, align 8
  call void @_ZN10QArrayData10deallocateEPS_xx(ptr noundef %13, i64 noundef 1, i64 noundef 8) #9
  br label %_ZN10QByteArrayD2Ev.exit

_ZN10QByteArrayD2Ev.exit:                         ; preds = %9, %_ZN17QArrayDataPointerIcE5derefEv.exit.i.i, %12
  call void @llvm.lifetime.end.p0(i64 24, ptr nonnull %3) #9
  ret void

14:                                               ; preds = %2
  %15 = landingpad { ptr, i32 }
          cleanup
  %16 = load ptr, ptr %3, align 8
  %.not.i.i.i4 = icmp eq ptr %16, null
  br i1 %.not.i.i.i4, label %_ZN10QByteArrayD2Ev.exit7, label %_ZN17QArrayDataPointerIcE5derefEv.exit.i.i5

_ZN17QArrayDataPointerIcE5derefEv.exit.i.i5:      ; preds = %14
  %17 = atomicrmw sub ptr %16, i32 1 seq_cst, align 4
  %.not.i.i6 = icmp eq i32 %17, 1
  br i1 %.not.i.i6, label %18, label %_ZN10QByteArrayD2Ev.exit7

18:                                               ; preds = %_ZN17QArrayDataPointerIcE5derefEv.exit.i.i5
  %19 = load ptr, ptr %3, align 8
  call void @_ZN10QArrayData10deallocateEPS_xx(ptr noundef %19, i64 noundef 1, i64 noundef 8) #9
  br label %_ZN10QByteArrayD2Ev.exit7

_ZN10QByteArrayD2Ev.exit7:                        ; preds = %14, %_ZN17QArrayDataPointerIcE5derefEv.exit.i.i5, %18
  call void @llvm.lifetime.end.p0(i64 24, ptr nonnull %3) #9
  resume { ptr, i32 } %15
}